target datalayout = "e-m:e-p270:32:32-p271:32:32-p272:64:64-i64:64-i128:128-f80:128-n8:16:32:64-S128"
target triple = "x86_64-pc-linux-gnu"

%struct.__loadu_si128 = type { <2 x i64> }
%struct.__storeu_si128 = type { <2 x i64> }

; Function Attrs: alwaysinline nounwind uwtable
define internal void @_mm_storeu_si128(ptr noundef %0, <2 x i64> noundef %1) #3 {
  %3 = alloca ptr, align 8
  %4 = alloca <2 x i64>, align 16
  store ptr %0, ptr %3, align 8, !tbaa !3
  store <2 x i64> %1, ptr %4, align 16, !tbaa !11
  %5 = load <2 x i64>, ptr %4, align 16, !tbaa !11
  %6 = load ptr, ptr %3, align 8, !tbaa !3
  %7 = getelementptr inbounds nuw %struct.__storeu_si128, ptr %6, i32 0, i32 0
  store <2 x i64> %5, ptr %7, align 1, !tbaa !11
  ret void
}

; Function Attrs: alwaysinline nounwind uwtable
define internal <2 x i64> @_mm_unpackhi_epi16(<2 x i64> noundef %0, <2 x i64> noundef %1) #3 {
  %3 = alloca <2 x i64>, align 16
  %4 = alloca <2 x i64>, align 16
  store <2 x i64> %0, ptr %3, align 16, !tbaa !11
  store <2 x i64> %1, ptr %4, align 16, !tbaa !11
  %5 = load <2 x i64>, ptr %3, align 16, !tbaa !11
  %6 = bitcast <2 x i64> %5 to <8 x i16>
  %7 = load <2 x i64>, ptr %4, align 16, !tbaa !11
  %8 = bitcast <2 x i64> %7 to <8 x i16>
  %9 = shufflevector <8 x i16> %6, <8 x i16> %8, <8 x i32> <i32 4, i32 12, i32 5, i32 13, i32 6, i32 14, i32 7, i32 15>
  %10 = bitcast <8 x i16> %9 to <2 x i64>
  ret <2 x i64> %10
}

; Function Attrs: alwaysinline nounwind uwtable
define internal <2 x i64> @_mm_unpacklo_epi16(<2 x i64> noundef %0, <2 x i64> noundef %1) #3 {
  %3 = alloca <2 x i64>, align 16
  %4 = alloca <2 x i64>, align 16
  store <2 x i64> %0, ptr %3, align 16, !tbaa !11
  store <2 x i64> %1, ptr %4, align 16, !tbaa !11
  %5 = load <2 x i64>, ptr %3, align 16, !tbaa !11
  %6 = bitcast <2 x i64> %5 to <8 x i16>
  %7 = load <2 x i64>, ptr %4, align 16, !tbaa !11
  %8 = bitcast <2 x i64> %7 to <8 x i16>
  %9 = shufflevector <8 x i16> %6, <8 x i16> %8, <8 x i32> <i32 0, i32 8, i32 1, i32 9, i32 2, i32 10, i32 3, i32 11>
  %10 = bitcast <8 x i16> %9 to <2 x i64>
  ret <2 x i64> %10
}

; Function Attrs: alwaysinline nounwind uwtable
define internal <2 x i64> @_mm_unpackhi_epi8(<2 x i64> noundef %0, <2 x i64> noundef %1) #3 {
  %3 = alloca <2 x i64>, align 16
  %4 = alloca <2 x i64>, align 16
  store <2 x i64> %0, ptr %3, align 16, !tbaa !11
  store <2 x i64> %1, ptr %4, align 16, !tbaa !11
  %5 = load <2 x i64>, ptr %3, align 16, !tbaa !11
  %6 = bitcast <2 x i64> %5 to <16 x i8>
  %7 = load <2 x i64>, ptr %4, align 16, !tbaa !11
  %8 = bitcast <2 x i64> %7 to <16 x i8>
  %9 = shufflevector <16 x i8> %6, <16 x i8> %8, <16 x i32> <i32 8, i32 24, i32 9, i32 25, i32 10, i32 26, i32 11, i32 27, i32 12, i32 28, i32 13, i32 29, i32 14, i32 30, i32 15, i32 31>
  %10 = bitcast <16 x i8> %9 to <2 x i64>
  ret <2 x i64> %10
}

; Function Attrs: alwaysinline nounwind uwtable
define internal <2 x i64> @_mm_unpacklo_epi8(<2 x i64> noundef %0, <2 x i64> noundef %1) #3 {
  %3 = alloca <2 x i64>, align 16
  %4 = alloca <2 x i64>, align 16
  store <2 x i64> %0, ptr %3, align 16, !tbaa !11
  store <2 x i64> %1, ptr %4, align 16, !tbaa !11
  %5 = load <2 x i64>, ptr %3, align 16, !tbaa !11
  %6 = bitcast <2 x i64> %5 to <16 x i8>
  %7 = load <2 x i64>, ptr %4, align 16, !tbaa !11
  %8 = bitcast <2 x i64> %7 to <16 x i8>
  %9 = shufflevector <16 x i8> %6, <16 x i8> %8, <16 x i32> <i32 0, i32 16, i32 1, i32 17, i32 2, i32 18, i32 3, i32 19, i32 4, i32 20, i32 5, i32 21, i32 6, i32 22, i32 7, i32 23>
  %10 = bitcast <16 x i8> %9 to <2 x i64>
  ret <2 x i64> %10
}

; Function Attrs: alwaysinline nounwind uwtable
define internal <2 x i64> @_mm_loadu_si128(ptr noundef %0) #3 {
  %2 = alloca ptr, align 8
  store ptr %0, ptr %2, align 8, !tbaa !3
  %3 = load ptr, ptr %2, align 8, !tbaa !3
  %4 = getelementptr inbounds nuw %struct.__loadu_si128, ptr %3, i32 0, i32 0
  %5 = load <2 x i64>, ptr %4, align 1, !tbaa !11
  ret <2 x i64> %5
}

; Function Attrs: alwaysinline nounwind uwtable
define internal <2 x i64> @_mm_setzero_si128() #3 {
  %1 = alloca <2 x i64>, align 16
  store <2 x i64> zeroinitializer, ptr %1, align 16, !tbaa !11
  %2 = load <2 x i64>, ptr %1, align 16, !tbaa !11
  ret <2 x i64> %2
}

; Function Attrs: nounwind uwtable
define internal void @DispatchAlphaToGreen_SSE2(ptr noalias noundef %0, i32 noundef %1, i32 noundef %2, i32 noundef %3, ptr noalias noundef %4, i32 noundef %5) #1 {
  %7 = alloca ptr, align 8
  %8 = alloca i32, align 4
  %9 = alloca i32, align 4
  %10 = alloca i32, align 4
  %11 = alloca ptr, align 8
  %12 = alloca i32, align 4
  %13 = alloca i32, align 4
  %14 = alloca i32, align 4
  %15 = alloca <2 x i64>, align 16
  %16 = alloca i32, align 4
  %17 = alloca <2 x i64>, align 16
  %18 = alloca <2 x i64>, align 16
  %19 = alloca <2 x i64>, align 16
  %20 = alloca <2 x i64>, align 16
  %21 = alloca <2 x i64>, align 16
  %22 = alloca <2 x i64>, align 16
  %23 = alloca <2 x i64>, align 16
  store ptr %0, ptr %7, align 8, !tbaa !14
  store i32 %1, ptr %8, align 4, !tbaa !9
  store i32 %2, ptr %9, align 4, !tbaa !9
  store i32 %3, ptr %10, align 4, !tbaa !9
  store ptr %4, ptr %11, align 8, !tbaa !7
  store i32 %5, ptr %12, align 4, !tbaa !9
  call void @llvm.lifetime.start.p0(i64 4, ptr %13) #6
  call void @llvm.lifetime.start.p0(i64 4, ptr %14) #6
  call void @llvm.lifetime.start.p0(i64 16, ptr %15) #6
  %24 = call <2 x i64> @_mm_setzero_si128()
  store <2 x i64> %24, ptr %15, align 16, !tbaa !11
  call void @llvm.lifetime.start.p0(i64 4, ptr %16) #6
  %25 = load i32, ptr %9, align 4, !tbaa !9
  %26 = and i32 %25, -16
  store i32 %26, ptr %16, align 4, !tbaa !9
  store i32 0, ptr %14, align 4, !tbaa !9
  br label %27

27:                                               ; preds = %116, %6
  %28 = load i32, ptr %14, align 4, !tbaa !9
  %29 = load i32, ptr %10, align 4, !tbaa !9
  %30 = icmp slt i32 %28, %29
  br i1 %30, label %31, label %119

31:                                               ; preds = %27
  store i32 0, ptr %13, align 4, !tbaa !9
  br label %32

32:                                               ; preds = %84, %31
  %33 = load i32, ptr %13, align 4, !tbaa !9
  %34 = load i32, ptr %16, align 4, !tbaa !9
  %35 = icmp slt i32 %33, %34
  br i1 %35, label %36, label %87

36:                                               ; preds = %32
  call void @llvm.lifetime.start.p0(i64 16, ptr %17) #6
  %37 = load ptr, ptr %7, align 8, !tbaa !14
  %38 = load i32, ptr %13, align 4, !tbaa !9
  %39 = sext i32 %38 to i64
  %40 = getelementptr inbounds i8, ptr %37, i64 %39
  %41 = call <2 x i64> @_mm_loadu_si128(ptr noundef %40)
  store <2 x i64> %41, ptr %17, align 16, !tbaa !11
  call void @llvm.lifetime.start.p0(i64 16, ptr %18) #6
  %42 = load <2 x i64>, ptr %15, align 16, !tbaa !11
  %43 = load <2 x i64>, ptr %17, align 16, !tbaa !11
  %44 = call <2 x i64> @_mm_unpacklo_epi8(<2 x i64> noundef %42, <2 x i64> noundef %43)
  store <2 x i64> %44, ptr %18, align 16, !tbaa !11
  call void @llvm.lifetime.start.p0(i64 16, ptr %19) #6
  %45 = load <2 x i64>, ptr %15, align 16, !tbaa !11
  %46 = load <2 x i64>, ptr %17, align 16, !tbaa !11
  %47 = call <2 x i64> @_mm_unpackhi_epi8(<2 x i64> noundef %45, <2 x i64> noundef %46)
  store <2 x i64> %47, ptr %19, align 16, !tbaa !11
  call void @llvm.lifetime.start.p0(i64 16, ptr %20) #6
  %48 = load <2 x i64>, ptr %18, align 16, !tbaa !11
  %49 = load <2 x i64>, ptr %15, align 16, !tbaa !11
  %50 = call <2 x i64> @_mm_unpacklo_epi16(<2 x i64> noundef %48, <2 x i64> noundef %49)
  store <2 x i64> %50, ptr %20, align 16, !tbaa !11
  call void @llvm.lifetime.start.p0(i64 16, ptr %21) #6
  %51 = load <2 x i64>, ptr %19, align 16, !tbaa !11
  %52 = load <2 x i64>, ptr %15, align 16, !tbaa !11
  %53 = call <2 x i64> @_mm_unpacklo_epi16(<2 x i64> noundef %51, <2 x i64> noundef %52)
  store <2 x i64> %53, ptr %21, align 16, !tbaa !11
  call void @llvm.lifetime.start.p0(i64 16, ptr %22) #6
  %54 = load <2 x i64>, ptr %18, align 16, !tbaa !11
  %55 = load <2 x i64>, ptr %15, align 16, !tbaa !11
  %56 = call <2 x i64> @_mm_unpackhi_epi16(<2 x i64> noundef %54, <2 x i64> noundef %55)
  store <2 x i64> %56, ptr %22, align 16, !tbaa !11
  call void @llvm.lifetime.start.p0(i64 16, ptr %23) #6
  %57 = load <2 x i64>, ptr %19, align 16, !tbaa !11
  %58 = load <2 x i64>, ptr %15, align 16, !tbaa !11
  %59 = call <2 x i64> @_mm_unpackhi_epi16(<2 x i64> noundef %57, <2 x i64> noundef %58)
  store <2 x i64> %59, ptr %23, align 16, !tbaa !11
  %60 = load ptr, ptr %11, align 8, !tbaa !7
  %61 = load i32, ptr %13, align 4, !tbaa !9
  %62 = add nsw i32 %61, 0
  %63 = sext i32 %62 to i64
  %64 = getelementptr inbounds i32, ptr %60, i64 %63
  %65 = load <2 x i64>, ptr %20, align 16, !tbaa !11
  call void @_mm_storeu_si128(ptr noundef %64, <2 x i64> noundef %65)
  %66 = load ptr, ptr %11, align 8, !tbaa !7
  %67 = load i32, ptr %13, align 4, !tbaa !9
  %68 = add nsw i32 %67, 4
  %69 = sext i32 %68 to i64
  %70 = getelementptr inbounds i32, ptr %66, i64 %69
  %71 = load <2 x i64>, ptr %22, align 16, !tbaa !11
  call void @_mm_storeu_si128(ptr noundef %70, <2 x i64> noundef %71)
  %72 = load ptr, ptr %11, align 8, !tbaa !7
  %73 = load i32, ptr %13, align 4, !tbaa !9
  %74 = add nsw i32 %73, 8
  %75 = sext i32 %74 to i64
  %76 = getelementptr inbounds i32, ptr %72, i64 %75
  %77 = load <2 x i64>, ptr %21, align 16, !tbaa !11
  call void @_mm_storeu_si128(ptr noundef %76, <2 x i64> noundef %77)
  %78 = load ptr, ptr %11, align 8, !tbaa !7
  %79 = load i32, ptr %13, align 4, !tbaa !9
  %80 = add nsw i32 %79, 12
  %81 = sext i32 %80 to i64
  %82 = getelementptr inbounds i32, ptr %78, i64 %81
  %83 = load <2 x i64>, ptr %23, align 16, !tbaa !11
  call void @_mm_storeu_si128(ptr noundef %82, <2 x i64> noundef %83)
  call void @llvm.lifetime.end.p0(i64 16, ptr %23) #6
  call void @llvm.lifetime.end.p0(i64 16, ptr %22) #6
  call void @llvm.lifetime.end.p0(i64 16, ptr %21) #6
  call void @llvm.lifetime.end.p0(i64 16, ptr %20) #6
  call void @llvm.lifetime.end.p0(i64 16, ptr %19) #6
  call void @llvm.lifetime.end.p0(i64 16, ptr %18) #6
  call void @llvm.lifetime.end.p0(i64 16, ptr %17) #6
  br label %84

84:                                               ; preds = %36
  %85 = load i32, ptr %13, align 4, !tbaa !9
  %86 = add nsw i32 %85, 16
  store i32 %86, ptr %13, align 4, !tbaa !9
  br label %32, !llvm.loop !24

87:                                               ; preds = %32
  br label %88

88:                                               ; preds = %104, %87
  %89 = load i32, ptr %13, align 4, !tbaa !9
  %90 = load i32, ptr %9, align 4, !tbaa !9
  %91 = icmp slt i32 %89, %90
  br i1 %91, label %92, label %107

92:                                               ; preds = %88
  %93 = load ptr, ptr %7, align 8, !tbaa !14
  %94 = load i32, ptr %13, align 4, !tbaa !9
  %95 = sext i32 %94 to i64
  %96 = getelementptr inbounds i8, ptr %93, i64 %95
  %97 = load i8, ptr %96, align 1, !tbaa !11
  %98 = zext i8 %97 to i32
  %99 = shl i32 %98, 8
  %100 = load ptr, ptr %11, align 8, !tbaa !7
  %101 = load i32, ptr %13, align 4, !tbaa !9
  %102 = sext i32 %101 to i64
  %103 = getelementptr inbounds i32, ptr %100, i64 %102
  store i32 %99, ptr %103, align 4, !tbaa !9
  br label %104

104:                                              ; preds = %92
  %105 = load i32, ptr %13, align 4, !tbaa !9
  %106 = add nsw i32 %105, 1
  store i32 %106, ptr %13, align 4, !tbaa !9
  br label %88, !llvm.loop !25

107:                                              ; preds = %88
  %108 = load i32, ptr %8, align 4, !tbaa !9
  %109 = load ptr, ptr %7, align 8, !tbaa !14
  %110 = sext i32 %108 to i64
  %111 = getelementptr inbounds i8, ptr %109, i64 %110
  store ptr %111, ptr %7, align 8, !tbaa !14
  %112 = load i32, ptr %12, align 4, !tbaa !9
  %113 = load ptr, ptr %11, align 8, !tbaa !7
  %114 = sext i32 %112 to i64
  %115 = getelementptr inbounds i32, ptr %113, i64 %114
  store ptr %115, ptr %11, align 8, !tbaa !7
  br label %116

116:                                              ; preds = %107
  %117 = load i32, ptr %14, align 4, !tbaa !9
  %118 = add nsw i32 %117, 1
  store i32 %118, ptr %14, align 4, !tbaa !9
  br label %27, !llvm.loop !26

119:                                              ; preds = %27
  call void @llvm.lifetime.end.p0(i64 4, ptr %16) #6
  call void @llvm.lifetime.end.p0(i64 16, ptr %15) #6
  call void @llvm.lifetime.end.p0(i64 4, ptr %14) #6
  call void @llvm.lifetime.end.p0(i64 4, ptr %13) #6
  ret void
}