; Function Attrs: nofree norecurse nosync nounwind memory(argmem: readwrite) uwtable
define internal void @DispatchAlphaToGreen_SSE2(ptr noalias noundef readonly captures(none) %0, i32 noundef %1, i32 noundef %2, i32 noundef %3, ptr noalias noundef writeonly captures(none) %4, i32 noundef %5) #2 {
  %7 = and i32 %2, -16
  %8 = icmp sgt i32 %3, 0
  br i1 %8, label %.preheader46.lr.ph, label %._crit_edge53

.preheader46.lr.ph:                               ; preds = %6
  %9 = icmp sgt i32 %2, 15
  %10 = sext i32 %1 to i64
  %11 = sext i32 %5 to i64
  br i1 %9, label %.preheader46.us.preheader, label %.preheader46.lr.ph.split

.preheader46.us.preheader:                        ; preds = %.preheader46.lr.ph
  %12 = zext nneg i32 %7 to i64
  %13 = zext nneg i32 %2 to i64
  br label %.preheader46.us

.preheader46.us:                                  ; preds = %.preheader46.us.preheader, %._crit_edge.us
  %.052.us = phi ptr [ %14, %._crit_edge.us ], [ %0, %.preheader46.us.preheader ]
  %.04351.us = phi ptr [ %15, %._crit_edge.us ], [ %4, %.preheader46.us.preheader ]
  %.04550.us = phi i32 [ %16, %._crit_edge.us ], [ 0, %.preheader46.us.preheader ]
  br label %23

._crit_edge.us:                                   ; preds = %.lr.ph49.us, %..preheader_crit_edge.us
  %14 = getelementptr inbounds i8, ptr %.052.us, i64 %10
  %15 = getelementptr inbounds i32, ptr %.04351.us, i64 %11
  %16 = add nuw nsw i32 %.04550.us, 1
  %exitcond73.not = icmp eq i32 %16, %3
  br i1 %exitcond73.not, label %._crit_edge53, label %.preheader46.us, !llvm.loop !18

.lr.ph49.us:                                      ; preds = %..preheader_crit_edge.us, %.lr.ph49.us
  %indvars.iv70 = phi i64 [ %indvars.iv.next71, %.lr.ph49.us ], [ %indvars.iv68, %..preheader_crit_edge.us ]
  %17 = getelementptr inbounds nuw i8, ptr %.052.us, i64 %indvars.iv70
  %18 = load i8, ptr %17, align 1, !tbaa !7
  %19 = zext i8 %18 to i32
  %20 = shl nuw nsw i32 %19, 8
  %21 = getelementptr inbounds nuw i32, ptr %.04351.us, i64 %indvars.iv70
  store i32 %20, ptr %21, align 4, !tbaa !19
  %indvars.iv.next71 = add nuw nsw i64 %indvars.iv70, 1
  %22 = icmp samesign ult i64 %indvars.iv.next71, %13
  br i1 %22, label %.lr.ph49.us, label %._crit_edge.us, !llvm.loop !21

23:                                               ; preds = %.preheader46.us, %23
  %indvars.iv68 = phi i64 [ 16, %.preheader46.us ], [ %indvars.iv.next69, %23 ]
  %indvars.iv65 = phi i64 [ 0, %.preheader46.us ], [ %indvars.iv.next66, %23 ]
  %24 = getelementptr inbounds nuw i8, ptr %.052.us, i64 %indvars.iv65
  %25 = load <16 x i8>, ptr %24, align 1, !tbaa !7
  %26 = shufflevector <16 x i8> <i8 0, i8 0, i8 0, i8 0, i8 0, i8 0, i8 0, i8 0, i8 poison, i8 poison, i8 poison, i8 poison, i8 poison, i8 poison, i8 poison, i8 poison>, <16 x i8> %25, <16 x i32> <i32 0, i32 16, i32 1, i32 17, i32 2, i32 18, i32 3, i32 19, i32 4, i32 20, i32 5, i32 21, i32 6, i32 22, i32 7, i32 23>
  %27 = shufflevector <16 x i8> <i8 poison, i8 poison, i8 poison, i8 poison, i8 poison, i8 poison, i8 poison, i8 poison, i8 0, i8 0, i8 0, i8 0, i8 0, i8 0, i8 0, i8 0>, <16 x i8> %25, <16 x i32> <i32 8, i32 24, i32 9, i32 25, i32 10, i32 26, i32 11, i32 27, i32 12, i32 28, i32 13, i32 29, i32 14, i32 30, i32 15, i32 31>
  %28 = bitcast <16 x i8> %26 to <8 x i16>
  %29 = shufflevector <8 x i16> %28, <8 x i16> <i16 0, i16 0, i16 0, i16 0, i16 poison, i16 poison, i16 poison, i16 poison>, <8 x i32> <i32 0, i32 8, i32 1, i32 9, i32 2, i32 10, i32 3, i32 11>
  %30 = bitcast <16 x i8> %27 to <8 x i16>
  %31 = shufflevector <8 x i16> %30, <8 x i16> <i16 0, i16 0, i16 0, i16 0, i16 poison, i16 poison, i16 poison, i16 poison>, <8 x i32> <i32 0, i32 8, i32 1, i32 9, i32 2, i32 10, i32 3, i32 11>
  %32 = shufflevector <8 x i16> %28, <8 x i16> <i16 poison, i16 poison, i16 poison, i16 poison, i16 0, i16 0, i16 0, i16 0>, <8 x i32> <i32 4, i32 12, i32 5, i32 13, i32 6, i32 14, i32 7, i32 15>
  %33 = shufflevector <8 x i16> %30, <8 x i16> <i16 poison, i16 poison, i16 poison, i16 poison, i16 0, i16 0, i16 0, i16 0>, <8 x i32> <i32 4, i32 12, i32 5, i32 13, i32 6, i32 14, i32 7, i32 15>
  %34 = getelementptr inbounds nuw i32, ptr %.04351.us, i64 %indvars.iv65
  store <8 x i16> %29, ptr %34, align 1, !tbaa !7
  %35 = or disjoint i64 %indvars.iv65, 4
  %36 = getelementptr inbounds nuw i32, ptr %.04351.us, i64 %35
  store <8 x i16> %32, ptr %36, align 1, !tbaa !7
  %37 = or disjoint i64 %indvars.iv65, 8
  %38 = getelementptr inbounds nuw i32, ptr %.04351.us, i64 %37
  store <8 x i16> %31, ptr %38, align 1, !tbaa !7
  %39 = or disjoint i64 %indvars.iv65, 12
  %40 = getelementptr inbounds nuw i32, ptr %.04351.us, i64 %39
  store <8 x i16> %33, ptr %40, align 1, !tbaa !7
  %indvars.iv.next66 = add nuw nsw i64 %indvars.iv65, 16
  %41 = icmp samesign ult i64 %indvars.iv.next66, %12
  %indvars.iv.next69 = add nuw nsw i64 %indvars.iv68, 16
  br i1 %41, label %23, label %..preheader_crit_edge.us, !llvm.loop !22

..preheader_crit_edge.us:                         ; preds = %23
  %42 = trunc nuw nsw i64 %indvars.iv.next66 to i32
  %43 = icmp sgt i32 %2, %42
  br i1 %43, label %.lr.ph49.us, label %._crit_edge.us

.preheader46.lr.ph.split:                         ; preds = %.preheader46.lr.ph
  %44 = icmp sgt i32 %2, 0
  br i1 %44, label %.preheader46.us54.preheader, label %._crit_edge53

.preheader46.us54.preheader:                      ; preds = %.preheader46.lr.ph.split
  %wide.trip.count = zext nneg i32 %2 to i64
  br label %.preheader46.us54

.preheader46.us54:                                ; preds = %.preheader46.us54.preheader, %._crit_edge.us60
  %.052.us55 = phi ptr [ %51, %._crit_edge.us60 ], [ %0, %.preheader46.us54.preheader ]
  %.04351.us56 = phi ptr [ %52, %._crit_edge.us60 ], [ %4, %.preheader46.us54.preheader ]
  %.04550.us57 = phi i32 [ %53, %._crit_edge.us60 ], [ 0, %.preheader46.us54.preheader ]
  br label %45

45:                                               ; preds = %.preheader46.us54, %45
  %indvars.iv = phi i64 [ 0, %.preheader46.us54 ], [ %indvars.iv.next, %45 ]
  %46 = getelementptr inbounds nuw i8, ptr %.052.us55, i64 %indvars.iv
  %47 = load i8, ptr %46, align 1, !tbaa !7
  %48 = zext i8 %47 to i32
  %49 = shl nuw nsw i32 %48, 8
  %50 = getelementptr inbounds nuw i32, ptr %.04351.us56, i64 %indvars.iv
  store i32 %49, ptr %50, align 4, !tbaa !19
  %indvars.iv.next = add nuw nsw i64 %indvars.iv, 1
  %exitcond.not = icmp eq i64 %indvars.iv.next, %wide.trip.count
  br i1 %exitcond.not, label %._crit_edge.us60, label %45, !llvm.loop !21

._crit_edge.us60:                                 ; preds = %45
  %51 = getelementptr inbounds i8, ptr %.052.us55, i64 %10
  %52 = getelementptr inbounds i32, ptr %.04351.us56, i64 %11
  %53 = add nuw nsw i32 %.04550.us57, 1
  %exitcond64.not = icmp eq i32 %53, %3
  br i1 %exitcond64.not, label %._crit_edge53, label %.preheader46.us54, !llvm.loop !18

._crit_edge53:                                    ; preds = %._crit_edge.us60, %._crit_edge.us, %.preheader46.lr.ph.split, %6
  ret void
}